target datalayout = "e-m:e-p270:32:32-p271:32:32-p272:64:64-i64:64-i128:128-f80:128-n8:16:32:64-S128"
target triple = "x86_64-pc-linux-gnu"

@hf_bucket_bit = internal global i32 0, align 4
@hf_assignment_weight = internal global i32 0, align 4
@hf_assignment_status = internal global i32 0, align 4
@ett_hash_assignment_buckets = internal global i32 0, align 4
@.str.409 = private unnamed_addr constant [15 x i8] c"Bucket %3d: %s\00", align 1
@.str.410 = private unnamed_addr constant [9 x i8] c"Assigned\00", align 1
@.str.411 = private unnamed_addr constant [13 x i8] c"Not Assigned\00", align 1
@.str.427 = private unnamed_addr constant [21 x i8] c"Hash Assignment Data\00", align 1

; Function Attrs: null_pointer_is_valid sspstrong uwtable
define internal i32 @dissect_wccp2_assignment_weight_and_status_element(ptr noundef %0, i32 noundef %1, i32 noundef %2, ptr noundef %3, ptr noundef %4) #0 {
  %6 = alloca i32, align 4
  %7 = alloca ptr, align 8
  %8 = alloca i32, align 4
  %9 = alloca i32, align 4
  %10 = alloca ptr, align 8
  %11 = alloca ptr, align 8
  store ptr %0, ptr %7, align 8
  store i32 %1, ptr %8, align 4
  store i32 %2, ptr %9, align 4
  store ptr %3, ptr %10, align 8
  store ptr %4, ptr %11, align 8
  %12 = load i32, ptr %9, align 4
  %13 = icmp slt i32 %12, 4
  br i1 %13, label %14, label %17

14:                                               ; preds = %5
  %15 = load i32, ptr %9, align 4
  %16 = sub i32 %15, 4
  store i32 %16, ptr %6, align 4
  br label %43

17:                                               ; preds = %5
  %18 = load ptr, ptr %11, align 8
  %19 = load i32, ptr @hf_assignment_weight, align 4
  %20 = load ptr, ptr %7, align 8
  %21 = load i32, ptr %8, align 4
  %22 = call ptr @proto_tree_add_item(ptr noundef %18, i32 noundef %19, ptr noundef %20, i32 noundef %21, i32 noundef 2, i32 noundef 0)
  %23 = load i32, ptr %9, align 4
  %24 = sub i32 %23, 2
  store i32 %24, ptr %9, align 4
  %25 = load i32, ptr %8, align 4
  %26 = add i32 %25, 2
  store i32 %26, ptr %8, align 4
  %27 = load i32, ptr %9, align 4
  %28 = icmp slt i32 %27, 2
  br i1 %28, label %29, label %32

29:                                               ; preds = %17
  %30 = load i32, ptr %9, align 4
  %31 = sub i32 %30, 2
  store i32 %31, ptr %6, align 4
  br label %43

32:                                               ; preds = %17
  %33 = load ptr, ptr %11, align 8
  %34 = load i32, ptr @hf_assignment_status, align 4
  %35 = load ptr, ptr %7, align 8
  %36 = load i32, ptr %8, align 4
  %37 = call ptr @proto_tree_add_item(ptr noundef %33, i32 noundef %34, ptr noundef %35, i32 noundef %36, i32 noundef 2, i32 noundef 0)
  %38 = load i32, ptr %9, align 4
  %39 = sub i32 %38, 2
  store i32 %39, ptr %9, align 4
  %40 = load i32, ptr %8, align 4
  %41 = add i32 %40, 2
  store i32 %41, ptr %8, align 4
  %42 = load i32, ptr %9, align 4
  store i32 %42, ptr %6, align 4
  br label %43

43:                                               ; preds = %32, %29, %14
  %44 = load i32, ptr %6, align 4
  ret i32 %44
}

; Function Attrs: null_pointer_is_valid sspstrong uwtable
define internal i32 @wccp_bucket_info(i8 noundef zeroext %0, ptr noundef %1, i32 noundef %2, ptr noundef %3, i32 noundef %4) #0 {
  %6 = alloca i8, align 1
  %7 = alloca ptr, align 8
  %8 = alloca i32, align 4
  %9 = alloca ptr, align 8
  %10 = alloca i32, align 4
  %11 = alloca i32, align 4
  store i8 %0, ptr %6, align 1
  store ptr %1, ptr %7, align 8
  store i32 %2, ptr %8, align 4
  store ptr %3, ptr %9, align 8
  store i32 %4, ptr %10, align 4
  call void @llvm.lifetime.start.p0(i64 4, ptr %11) #9
  store i32 0, ptr %11, align 4
  br label %12

12:                                               ; preds = %36, %5
  %13 = load i32, ptr %11, align 4
  %14 = icmp ult i32 %13, 8
  br i1 %14, label %15, label %39

15:                                               ; preds = %12
  %16 = load ptr, ptr %7, align 8
  %17 = load i32, ptr @hf_bucket_bit, align 4
  %18 = load ptr, ptr %9, align 8
  %19 = load i32, ptr %10, align 4
  %20 = load i8, ptr %6, align 1
  %21 = zext i8 %20 to i32
  %22 = load i32, ptr %11, align 4
  %23 = shl i32 1, %22
  %24 = and i32 %21, %23
  %25 = load i32, ptr %8, align 4
  %26 = load i8, ptr %6, align 1
  %27 = zext i8 %26 to i32
  %28 = load i32, ptr %11, align 4
  %29 = shl i32 1, %28
  %30 = and i32 %27, %29
  %31 = icmp ne i32 %30, 0
  %32 = select i1 %31, ptr @.str.410, ptr @.str.411
  %33 = call ptr (ptr, i32, ptr, i32, i32, i32, ptr, ...) @proto_tree_add_uint_format(ptr noundef %16, i32 noundef %17, ptr noundef %18, i32 noundef %19, i32 noundef 1, i32 noundef %24, ptr noundef @.str.409, i32 noundef %25, ptr noundef %32)
  %34 = load i32, ptr %8, align 4
  %35 = add i32 %34, 1
  store i32 %35, ptr %8, align 4
  br label %36

36:                                               ; preds = %15
  %37 = load i32, ptr %11, align 4
  %38 = add i32 %37, 1
  store i32 %38, ptr %11, align 4
  br label %12, !llvm.loop !14

39:                                               ; preds = %12
  %40 = load i32, ptr %8, align 4
  call void @llvm.lifetime.end.p0(i64 4, ptr %11) #9
  ret i32 %40
}

; Function Attrs: null_pointer_is_valid sspstrong uwtable
define internal i32 @dissect_wccp2_hash_assignment_data_element(ptr noundef %0, i32 noundef %1, i32 noundef %2, ptr noundef %3, ptr noundef %4) #0 {
  %6 = alloca i32, align 4
  %7 = alloca ptr, align 8
  %8 = alloca i32, align 4
  %9 = alloca i32, align 4
  %10 = alloca ptr, align 8
  %11 = alloca ptr, align 8
  %12 = alloca ptr, align 8
  %13 = alloca i32, align 4
  %14 = alloca i8, align 1
  %15 = alloca i32, align 4
  %16 = alloca i32, align 4
  store ptr %0, ptr %7, align 8
  store i32 %1, ptr %8, align 4
  store i32 %2, ptr %9, align 4
  store ptr %3, ptr %10, align 8
  store ptr %4, ptr %11, align 8
  call void @llvm.lifetime.start.p0(i64 8, ptr %12) #9
  call void @llvm.lifetime.start.p0(i64 4, ptr %13) #9
  call void @llvm.lifetime.start.p0(i64 1, ptr %14) #9
  call void @llvm.lifetime.start.p0(i64 4, ptr %15) #9
  %17 = load ptr, ptr %11, align 8
  %18 = load ptr, ptr %7, align 8
  %19 = load i32, ptr %8, align 4
  %20 = load i32, ptr @ett_hash_assignment_buckets, align 4
  %21 = call ptr @proto_tree_add_subtree(ptr noundef %17, ptr noundef %18, i32 noundef %19, i32 noundef 32, i32 noundef %20, ptr noundef null, ptr noundef @.str.427)
  store ptr %21, ptr %12, align 8
  store i32 0, ptr %13, align 4
  store i32 0, ptr %15, align 4
  br label %22

22:                                               ; preds = %47, %5
  %23 = load i32, ptr %13, align 4
  %24 = icmp slt i32 %23, 32
  br i1 %24, label %25, label %50

25:                                               ; preds = %22
  %26 = load i32, ptr %9, align 4
  %27 = icmp eq i32 %26, 0
  br i1 %27, label %28, label %33

28:                                               ; preds = %25
  %29 = load i32, ptr %13, align 4
  %30 = sub i32 0, %29
  %31 = sub i32 %30, 2
  %32 = sub i32 %31, 2
  store i32 %32, ptr %6, align 4
  store i32 1, ptr %16, align 4
  br label %61

33:                                               ; preds = %25
  %34 = load ptr, ptr %7, align 8
  %35 = load i32, ptr %8, align 4
  %36 = call zeroext i8 @tvb_get_uint8(ptr noundef %34, i32 noundef %35)
  store i8 %36, ptr %14, align 1
  %37 = load i8, ptr %14, align 1
  %38 = load ptr, ptr %12, align 8
  %39 = load i32, ptr %15, align 4
  %40 = load ptr, ptr %7, align 8
  %41 = load i32, ptr %8, align 4
  %42 = call i32 @wccp_bucket_info(i8 noundef zeroext %37, ptr noundef %38, i32 noundef %39, ptr noundef %40, i32 noundef %41)
  store i32 %42, ptr %15, align 4
  %43 = load i32, ptr %9, align 4
  %44 = sub i32 %43, 1
  store i32 %44, ptr %9, align 4
  %45 = load i32, ptr %8, align 4
  %46 = add i32 %45, 1
  store i32 %46, ptr %8, align 4
  br label %47

47:                                               ; preds = %33
  %48 = load i32, ptr %13, align 4
  %49 = add i32 %48, 1
  store i32 %49, ptr %13, align 4
  br label %22, !llvm.loop !25

50:                                               ; preds = %22
  %51 = load i32, ptr %9, align 4
  %52 = icmp slt i32 %51, 2
  br i1 %52, label %53, label %54

53:                                               ; preds = %50
  store i32 -4, ptr %6, align 4
  store i32 1, ptr %16, align 4
  br label %61

54:                                               ; preds = %50
  %55 = load ptr, ptr %7, align 8
  %56 = load i32, ptr %8, align 4
  %57 = load i32, ptr %9, align 4
  %58 = load ptr, ptr %10, align 8
  %59 = load ptr, ptr %11, align 8
  %60 = call i32 @dissect_wccp2_assignment_weight_and_status_element(ptr noundef %55, i32 noundef %56, i32 noundef %57, ptr noundef %58, ptr noundef %59)
  store i32 %60, ptr %6, align 4
  store i32 1, ptr %16, align 4
  br label %61

61:                                               ; preds = %54, %53, %28
  call void @llvm.lifetime.end.p0(i64 4, ptr %15) #9
  call void @llvm.lifetime.end.p0(i64 1, ptr %14) #9
  call void @llvm.lifetime.end.p0(i64 4, ptr %13) #9
  call void @llvm.lifetime.end.p0(i64 8, ptr %12) #9
  %62 = load i32, ptr %6, align 4
  ret i32 %62
}