; Function Attrs: null_pointer_is_valid sspstrong uwtable
define internal fastcc range(i32 -35, 2147483635) i32 @dissect_wccp2_hash_assignment_data_element(ptr noundef %0, i32 noundef %1, i32 noundef range(i32 0, 2147483640) %2, ptr noundef %3) unnamed_addr #0 {
  %5 = load i32, ptr @ett_hash_assignment_buckets, align 4
  %6 = tail call ptr @proto_tree_add_subtree(ptr noundef %3, ptr noundef %0, i32 noundef %1, i32 noundef 32, i32 noundef %5, ptr noundef null, ptr noundef nonnull @.str.427)
  %umin = tail call i32 @llvm.umin.i32(i32 %2, i32 31)
  %7 = sub nsw i32 %2, %umin
  br label %8

8:                                                ; preds = %4, %wccp_bucket_info.exit
  %.07 = phi i32 [ 0, %4 ], [ %21, %wccp_bucket_info.exit ]
  %.0236 = phi i32 [ 0, %4 ], [ %25, %wccp_bucket_info.exit ]
  %.0245 = phi i32 [ %1, %4 ], [ %24, %wccp_bucket_info.exit ]
  %.0254 = phi i32 [ %2, %4 ], [ %23, %wccp_bucket_info.exit ]
  %9 = icmp eq i32 %.0254, 0
  br i1 %9, label %10, label %12

10:                                               ; preds = %8
  %11 = sub nuw nsw i32 -4, %umin
  br label %dissect_wccp2_assignment_weight_and_status_element.exit

12:                                               ; preds = %8
  %13 = tail call zeroext i8 @tvb_get_uint8(ptr noundef %0, i32 noundef %.0245)
  %14 = zext i8 %13 to i32
  br label %15

15:                                               ; preds = %15, %12
  %.013.i = phi i32 [ 0, %12 ], [ %22, %15 ]
  %.01112.i = phi i32 [ %.07, %12 ], [ %21, %15 ]
  %16 = load i32, ptr @hf_bucket_bit, align 4
  %17 = shl nuw nsw i32 1, %.013.i
  %18 = and i32 %17, %14
  %.not.i = icmp eq i32 %18, 0
  %19 = select i1 %.not.i, ptr @.str.411, ptr @.str.410
  %20 = tail call ptr (ptr, i32, ptr, i32, i32, i32, ptr, ...) @proto_tree_add_uint_format(ptr noundef %6, i32 noundef %16, ptr noundef %0, i32 noundef %.0245, i32 noundef 1, i32 noundef %18, ptr noundef nonnull @.str.409, i32 noundef %.01112.i, ptr noundef nonnull %19)
  %21 = add i32 %.01112.i, 1
  %22 = add nuw nsw i32 %.013.i, 1
  %exitcond.not.i = icmp eq i32 %22, 8
  br i1 %exitcond.not.i, label %wccp_bucket_info.exit, label %15, !llvm.loop !11

wccp_bucket_info.exit:                            ; preds = %15
  %23 = add nsw i32 %.0254, -1
  %24 = add i32 %.0245, 1
  %25 = add nuw nsw i32 %.0236, 1
  %exitcond.not = icmp eq i32 %25, 32
  br i1 %exitcond.not, label %26, label %8, !llvm.loop !30

26:                                               ; preds = %wccp_bucket_info.exit
  %27 = icmp slt i32 %7, 3
  br i1 %27, label %dissect_wccp2_assignment_weight_and_status_element.exit, label %28

28:                                               ; preds = %26
  %29 = icmp samesign ult i32 %7, 5
  br i1 %29, label %30, label %32

30:                                               ; preds = %28
  %31 = or disjoint i32 %23, -4
  br label %dissect_wccp2_assignment_weight_and_status_element.exit

32:                                               ; preds = %28
  %33 = load i32, ptr @hf_assignment_weight, align 4
  %34 = tail call ptr @proto_tree_add_item(ptr noundef %3, i32 noundef %33, ptr noundef %0, i32 noundef %24, i32 noundef 2, i32 noundef 0)
  %35 = add i32 %.0245, 3
  %36 = load i32, ptr @hf_assignment_status, align 4
  %37 = tail call ptr @proto_tree_add_item(ptr noundef %3, i32 noundef %36, ptr noundef %0, i32 noundef %35, i32 noundef 2, i32 noundef 0)
  %38 = add nsw i32 %7, -5
  br label %dissect_wccp2_assignment_weight_and_status_element.exit

dissect_wccp2_assignment_weight_and_status_element.exit: ; preds = %32, %30, %26, %10
  %.022 = phi i32 [ %11, %10 ], [ -4, %26 ], [ %31, %30 ], [ %38, %32 ]
  ret i32 %.022
}